(dp0
S'http://193.61.191.117/~B00664468/COM%20506%20-%20Professional%20Web%20Services%20Dev/B3/test_web/test_index.html'
p1
(lp2
S'http://193.61.191.117/~B00664468/COM%20506%20-%20Professional%20Web%20Services%20Dev/B3/test_web/webcrawler.html'
p3
aS'http://193.61.191.117/~B00664468/COM%20506%20-%20Professional%20Web%20Services%20Dev/B3/test_web/content.html'
p4
aS'http://193.61.191.117/~B00664468/COM%20506%20-%20Professional%20Web%20Services%20Dev/B3/test_web/pageRank.html'
p5
as.