(dp0
S'http://adrianmoore.net/com506/test_web/pageRank.html'
p1
(lp2
S'http://adrianmoore.net/com506/test_web/interesting.html'
p3
asS'http://adrianmoore.net/com506/test_web/index.html'
p4
(lp5
S'http://adrianmoore.net/com506/test_web/webcrawler.html'
p6
aS'http://adrianmoore.net/com506/test_web/content.html'
p7
ag1
asg6
(lp8
S'http://adrianmoore.net/com506/test_web/content.html'
p9
aS'http://adrianmoore.net/com506/test_web/index.html'
p10
asg7
(lp11
sS'http://adrianmoore.net/com506/test_web/interesting2.html'
p12
(lp13
S'http://adrianmoore.net/com506/test_web/interesting3.html'
p14
asg3
(lp15
g12
as.