(dp0
S'http://adrianmoore.net/com506/test_web/interesting.html'
p1
(lp2
S'http://adrianmoore.net/com506/test_web/interesting2.html'
p3
asS'http://adrianmoore.net/com506/test_web/pageRank.html'
p4
(lp5
S'http://adrianmoore.net/com506/test_web/interesting.html'
p6
asS'http://adrianmoore.net/com506/test_web/content.html'
p7
(lp8
sS'http://adrianmoore.net/com506/test_web/index.html'
p9
(lp10
S'http://adrianmoore.net/com506/test_web/webcrawler.html'
p11
aS'http://adrianmoore.net/com506/test_web/content.html'
p12
aS'http://adrianmoore.net/com506/test_web/pageRank.html'
p13
asS'http://adrianmoore.net/com506/test_web/webcrawler.html'
p14
(lp15
S'http://adrianmoore.net/com506/test_web/content.html'
p16
aS'http://adrianmoore.net/com506/test_web/index.html'
p17
as.