(dp0
S'http://adrianmoore.net/com506/test_web/pageRank.html'
p1
(lp2
S'http://adrianmoore.net/com506/test_web/interesting.html'
p3
asS'http://adrianmoore.net/com506/test_web/content.html'
p4
(lp5
sg3
(lp6
S'http://adrianmoore.net/com506/test_web/interesting2.html'
p7
asS'http://adrianmoore.net/com506/test_web/index.html'
p8
(lp9
S'http://adrianmoore.net/com506/test_web/webcrawler.html'
p10
ag4
ag1
asg10
(lp11
S'http://adrianmoore.net/com506/test_web/content.html'
p12
aS'http://adrianmoore.net/com506/test_web/index.html'
p13
as.