(dp0
S'http://adrianmoore.net/com506/test_web/pageRank.html'
p1
(lp2
S'http://adrianmoore.net/com506/test_web/interesting.html'
p3
asS'http://adrianmoore.net/com506/test_web/content.html'
p4
(lp5
sS'http://adrianmoore.net/com506/test_web/index.html'
p6
(lp7
S'http://adrianmoore.net/com506/test_web/webcrawler.html'
p8
ag4
ag1
asg8
(lp9
S'http://adrianmoore.net/com506/test_web/content.html'
p10
aS'http://adrianmoore.net/com506/test_web/index.html'
p11
as.