(dp0
S'http://adrianmoore.net/com506/test_web/pageRank.html'
p1
(lp2
S'http://adrianmoore.net/com506/test_web/interesting.html'
p3
asS'http://adrianmoore.net/com506/test_web/webcrawler.html'
p4
(lp5
S'http://adrianmoore.net/com506/test_web/content.html'
p6
aS'http://adrianmoore.net/com506/test_web/index.html'
p7
asg3
(lp8
S'http://adrianmoore.net/com506/test_web/interesting2.html'
p9
asS'http://adrianmoore.net/com506/test_web/index.html'
p10
(lp11
g4
aS'http://adrianmoore.net/com506/test_web/content.html'
p12
ag1
asg12
(lp13
s.