(dp0
S'http://adrianmoore.net/com506/test_web/index.html'
p1
(lp2
S'http://adrianmoore.net/com506/test_web/webcrawler.html'
p3
aS'http://adrianmoore.net/com506/test_web/content.html'
p4
aS'http://adrianmoore.net/com506/test_web/pageRank.html'
p5
as.