(dp0
S'http://193.61.191.117/~B00664468/COM%20506%20-%20Professional%20Web%20Services%20Dev/B3/test_web/test_index.html'
p1
(lp2
S'http://193.61.191.117/~B00664468/COM%20506%20-%20Professional%20Web%20Services%20Dev/B3/test_web/webcrawler.html'
p3
aS'http://193.61.191.117/~B00664468/COM%20506%20-%20Professional%20Web%20Services%20Dev/B3/test_web/content.html'
p4
aS'http://193.61.191.117/~B00664468/COM%20506%20-%20Professional%20Web%20Services%20Dev/B3/test_web/pageRank.html'
p5
asS'http://adrianmoore.net/com506/test_web/pageRank.html'
p6
(lp7
S'http://adrianmoore.net/com506/test_web/interesting.html'
p8
asS'http://adrianmoore.net/com506/test_web/content.html'
p9
(lp10
sS'http://adrianmoore.net/com506/test_web/index.html'
p11
(lp12
S'http://adrianmoore.net/com506/test_web/webcrawler.html'
p13
ag9
ag6
asg13
(lp14
S'http://adrianmoore.net/com506/test_web/content.html'
p15
aS'http://adrianmoore.net/com506/test_web/index.html'
p16
as.