(dp0
S'http://adrianmoore.net/com506/test_web/interesting.html'
p1
F0.06721278228333014
sS'http://adrianmoore.net/com506/test_web/pageRank.html'
p2
F0.04377468022065438
sS'http://adrianmoore.net/com506/test_web/content.html'
p3
F0.06238107136231944
sS'http://adrianmoore.net/com506/test_web/index.html'
p4
F0.04860639114166507
sS'http://adrianmoore.net/com506/test_web/webcrawler.html'
p5
F0.04377468022065438
s.