(dp0
S'http://193.61.191.117/~B00664468/COM%20506%20-%20Professional%20Web%20Services%20Dev/B3/test_web/test_index.html'
p1
F0.030000000000000006
sS'http://adrianmoore.net/com506/test_web/pageRank.html'
p2
F0.04377468022065438
sS'http://adrianmoore.net/com506/test_web/content.html'
p3
F0.06238107136231945
sS'http://adrianmoore.net/com506/test_web/index.html'
p4
F0.04860639114166507
sS'http://adrianmoore.net/com506/test_web/webcrawler.html'
p5
F0.04377468022065438
s.